; Function Attrs: nounwind uwtable
define internal void @HeapCCollection_dealloc(ptr noundef %0) #0 {
  %2 = getelementptr i8, ptr %0, i64 8
  %.val = load ptr, ptr %2, align 8, !tbaa !9
  %3 = tail call i32 @HeapCCollection_clear(ptr noundef %0)
  tail call void @PyObject_GC_UnTrack(ptr noundef %0) #8
  %4 = getelementptr inbounds nuw i8, ptr %.val, i64 320
  %5 = load ptr, ptr %4, align 8, !tbaa !65
  tail call void %5(ptr noundef %0) #8
  %6 = load i32, ptr %.val, align 8, !tbaa !8
  %.not.i = icmp sgt i32 %6, -1
  br i1 %.not.i, label %7, label %Py_DECREF.exit

7:                                                ; preds = %1
  %8 = add nsw i32 %6, -1
  store i32 %8, ptr %.val, align 8, !tbaa !8
  %9 = icmp eq i32 %8, 0
  br i1 %9, label %10, label %Py_DECREF.exit

10:                                               ; preds = %7
  tail call void @_Py_Dealloc(ptr noundef nonnull %.val) #8
  br label %Py_DECREF.exit

Py_DECREF.exit:                                   ; preds = %1, %7, %10
  ret void
}